((cscenesim.objects.sso
SSO
p1
cscenesim.objects.pso
RBSO
p2
g2
g2
g2
g2
g2
cscenesim.objects.gso
GSO
p3
g3
g3
g3
g3
g3
g1
g1
g1
g1
g1
g1
g1
g1
g1
g1
g1
g1
g1
g1
g1
g1
g1
g1
g1
g1
g1
g1
g1
g1
g1
g1
g1
g1
g1
g1
g1
g1
g1
g1
g1
g1
t((dp4
S'quat'
p5
clibpanda
LQuaternionf
p6
(F1
F0
F0
F0
tRp7
sS'scale'
p8
clibpanda
LVecBase3f
p9
(F1
F1
F1
tRp10
sS'pos'
p11
clibpanda
LPoint3f
p12
(F0
F0
F0
tRp13
sS'name'
p14
S'block_root'
p15
s(dp16
g8
g9
(F0.625
F1
F1.25
tRp17
sg14
S'Box_1'
p18
sg5
g6
(F1
F0
F0
F0
tRp19
sS'linear_velocity'
p20
clibpanda
LVector3f
p21
(F0
F0
F0
tRp22
sg11
g12
(F-3.125
F0
F0.625
tRp23
sS'friction'
p24
F0.5
sS'shape'
p25
S'Box'
p26
sS'mass'
p27
F0.1953125
sS'angular_velocity'
p28
g21
(F0
F0
F0
tRp29
sS'restitution'
p30
F0
s(dp31
g8
g9
(F0.625
F1
F2.8125
tRp32
sg14
S'Box_2'
p33
sg5
g6
(F1
F0
F0
F0
tRp34
sg20
g21
(F0
F0
F0
tRp35
sg11
g12
(F-3.125
F0
F2.65625
tRp36
sg24
F0.5
sg25
g26
sg27
F0.439453125
sg28
g21
(F0
F0
F0
tRp37
sg30
F0
s(dp38
g8
g9
(F2.1875
F1
F0.3125
tRp39
sg14
S'Box_3'
p40
sg5
g6
(F1
F0
F0
F0
tRp41
sg20
g21
(F0
F0
F0
tRp42
sg11
g12
(F-2.65625
F0
F4.21875
tRp43
sg24
F0.5
sg25
g26
sg27
F0.1708984375
sg28
g21
(F0
F0
F0
tRp44
sg30
F0
s(dp45
g8
g9
(F0.625
F1
F0.9375
tRp46
sg14
S'Box_4'
p47
sg5
g6
(F1
F0
F0
F0
tRp48
sg20
g21
(F0
F0
F0
tRp49
sg11
g12
(F-1.875
F0
F4.84375
tRp50
sg24
F0.5
sg25
g26
sg27
F0.146484375
sg28
g21
(F0
F0
F0
tRp51
sg30
F0
s(dp52
g8
g9
(F1.25
F1
F1.25
tRp53
sg14
S'Box_5'
p54
sg5
g6
(F1
F0
F0
F0
tRp55
sg20
g21
(F0
F0
F0
tRp56
sg11
g12
(F-2.5
F0
F5.9375
tRp57
sg24
F0.5
sg25
g26
sg27
F0.390625
sg28
g21
(F0
F0
F0
tRp58
sg30
F0
s(dp59
g8
g9
(F0.625
F1
F1.5625
tRp60
sg14
S'Box_6'
p61
sg5
g6
(F1
F0
F0
F0
tRp62
sg20
g21
(F0
F0
F0
tRp63
sg11
g12
(F-3.4375
F0
F5.15625
tRp64
sg24
F0.5
sg25
g26
sg27
F0.24414061009883881
sg28
g21
(F0
F0
F0
tRp65
sg30
F0
s(dp66
g8
g9
(F1
F1
F1
tRp67
sg14
S'gcpo'
p68
sS'color'
p69
clibpanda
LVecBase4f
p70
(F0.67000001668930054
F0.12300000339746475
F0
F1
tRp71
sg5
g6
(F1
F0
F0
F0
tRp72
sg11
g12
(F0
F0
F0
tRp73
sS'model'
p74
S'block.egg'
p75
s(dp76
g8
g9
(F1
F1
F1
tRp77
sg14
S'gcpo'
p78
sg69
g70
(F0.73000001907348633
F0.74300003051757812
F0
F1
tRp79
sg5
g6
(F1
F0
F0
F0
tRp80
sg11
g12
(F0
F0
F0
tRp81
sg74
g75
s(dp82
g8
g9
(F1
F1
F1
tRp83
sg14
S'gcpo'
p84
sg69
g70
(F0.096000000834465027
F0.81900006532669067
F0
F1
tRp85
sg5
g6
(F1
F0
F0
F0
tRp86
sg11
g12
(F0
F0
F0
tRp87
sg74
g75
s(dp88
g8
g9
(F1
F1
F1
tRp89
sg14
S'gcpo'
p90
sg69
g70
(F0
F0.89900004863739014
F0.65900003910064697
F1
tRp91
sg5
g6
(F1
F0
F0
F0
tRp92
sg11
g12
(F0
F0
F0
tRp93
sg74
g75
s(dp94
g8
g9
(F1
F1
F1
tRp95
sg14
S'gcpo'
p96
sg69
g70
(F0
F0.26399999856948853
F0.60800004005432129
F1
tRp97
sg5
g6
(F1
F0
F0
F0
tRp98
sg11
g12
(F0
F0
F0
tRp99
sg74
g75
s(dp100
g8
g9
(F1
F1
F1
tRp101
sg14
S'gcpo'
p102
sg69
g70
(F0.2460000067949295
F0
F0.56700003147125244
F1
tRp103
sg5
g6
(F1
F0
F0
F0
tRp104
sg11
g12
(F0
F0
F0
tRp105
sg74
g75
s(dp106
g5
g6
(F1
F0
F0
F0
tRp107
sg8
g9
(F1
F1
F1
tRp108
sg11
g12
(F0
F0
F0
tRp109
sg14
S'block.egg'
p110
s(dp111
g5
g6
(F1
F0
F0
F0
tRp112
sg8
g9
(F1
F1
F1
tRp113
sg11
g12
(F0
F0
F0
tRp114
sg14
S'block.egg'
p115
s(dp116
g5
g6
(F1
F0
F0
F0
tRp117
sg8
g9
(F1
F1
F1
tRp118
sg11
g12
(F0
F0
F0
tRp119
sg14
S'block.egg'
p120
s(dp121
g5
g6
(F1
F0
F0
F0
tRp122
sg8
g9
(F1
F1
F1
tRp123
sg11
g12
(F0
F0
F0
tRp124
sg14
S'block.egg'
p125
s(dp126
g5
g6
(F1
F0
F0
F0
tRp127
sg8
g9
(F1
F1
F1
tRp128
sg11
g12
(F0
F0
F0
tRp129
sg14
S'block.egg'
p130
s(dp131
g5
g6
(F1
F0
F0
F0
tRp132
sg8
g9
(F1
F1
F1
tRp133
sg11
g12
(F0
F0
F0
tRp134
sg14
S'block.egg'
p135
s(dp136
g5
g6
(F1
F0
F0
F0
tRp137
sg8
g9
(F1
F1
F1
tRp138
sg11
g12
(F0
F0
F0
tRp139
sg14
S'block.egg'
p140
s(dp141
g5
g6
(F1
F0
F0
F0
tRp142
sg8
g9
(F1
F1
F1
tRp143
sg11
g12
(F0
F0
F0
tRp144
sg14
S'block.egg'
p145
s(dp146
g5
g6
(F1
F0
F0
F0
tRp147
sg8
g9
(F1
F1
F1
tRp148
sg11
g12
(F0
F0
F0
tRp149
sg14
S'block.egg'
p150
s(dp151
g5
g6
(F1
F0
F0
F0
tRp152
sg8
g9
(F1
F1
F1
tRp153
sg11
g12
(F0
F0
F0
tRp154
sg14
S'block.egg'
p155
s(dp156
g5
g6
(F1
F0
F0
F0
tRp157
sg8
g9
(F1
F1
F1
tRp158
sg11
g12
(F0
F0
F0
tRp159
sg14
S'block.egg'
p160
s(dp161
g5
g6
(F1
F0
F0
F0
tRp162
sg8
g9
(F1
F1
F1
tRp163
sg11
g12
(F0
F0
F0
tRp164
sg14
S'block.egg'
p165
s(dp166
g5
g6
(F1
F0
F0
F0
tRp167
sg8
g9
(F1
F1
F1
tRp168
sg11
g12
(F0
F0
F0
tRp169
sg14
S''
s(dp170
g5
g6
(F1
F0
F0
F0
tRp171
sg8
g9
(F1
F1
F1
tRp172
sg11
g12
(F0
F0
F0
tRp173
sg14
S''
s(dp174
g5
g6
(F1
F0
F0
F0
tRp175
sg8
g9
(F1
F1
F1
tRp176
sg11
g12
(F0
F0
F0
tRp177
sg14
S''
s(dp178
g5
g6
(F1
F0
F0
F0
tRp179
sg8
g9
(F1
F1
F1
tRp180
sg11
g12
(F0
F0
F0
tRp181
sg14
S''
s(dp182
g5
g6
(F1
F0
F0
F0
tRp183
sg8
g9
(F1
F1
F1
tRp184
sg11
g12
(F0
F0
F0
tRp185
sg14
S''
s(dp186
g5
g6
(F1
F0
F0
F0
tRp187
sg8
g9
(F1
F1
F1
tRp188
sg11
g12
(F0
F0
F0
tRp189
sg14
S''
s(dp190
g5
g6
(F1
F0
F0
F0
tRp191
sg8
g9
(F1
F1
F1
tRp192
sg11
g12
(F0
F0
F0
tRp193
sg14
S''
s(dp194
g5
g6
(F1
F0
F0
F0
tRp195
sg8
g9
(F1
F1
F1
tRp196
sg11
g12
(F0
F0
F0
tRp197
sg14
S''
s(dp198
g5
g6
(F1
F0
F0
F0
tRp199
sg8
g9
(F1
F1
F1
tRp200
sg11
g12
(F0
F0
F0
tRp201
sg14
S''
s(dp202
g5
g6
(F1
F0
F0
F0
tRp203
sg8
g9
(F1
F1
F1
tRp204
sg11
g12
(F0
F0
F0
tRp205
sg14
S''
s(dp206
g5
g6
(F1
F0
F0
F0
tRp207
sg8
g9
(F1
F1
F1
tRp208
sg11
g12
(F0
F0
F0
tRp209
sg14
S''
s(dp210
g5
g6
(F1
F0
F0
F0
tRp211
sg8
g9
(F1
F1
F1
tRp212
sg11
g12
(F0
F0
F0
tRp213
sg14
S''
s(dp214
g5
g6
(F1
F0
F0
F0
tRp215
sg8
g9
(F0.5
F0.5
F0.5
tRp216
sg11
g12
(F0
F0
F0
tRp217
sg14
S'Cube.001'
p218
s(dp219
g5
g6
(F1
F0
F0
F0
tRp220
sg8
g9
(F0.5
F0.5
F0.5
tRp221
sg11
g12
(F0
F0
F0
tRp222
sg14
S'Cube.001'
p223
s(dp224
g5
g6
(F1
F0
F0
F0
tRp225
sg8
g9
(F0.5
F0.5
F0.5
tRp226
sg11
g12
(F0
F0
F0
tRp227
sg14
S'Cube.001'
p228
s(dp229
g5
g6
(F1
F0
F0
F0
tRp230
sg8
g9
(F0.5
F0.5
F0.5
tRp231
sg11
g12
(F0
F0
F0
tRp232
sg14
S'Cube.001'
p233
s(dp234
g5
g6
(F1
F0
F0
F0
tRp235
sg8
g9
(F0.5
F0.5
F0.5
tRp236
sg11
g12
(F0
F0
F0
tRp237
sg14
S'Cube.001'
p238
s(dp239
g5
g6
(F1
F0
F0
F0
tRp240
sg8
g9
(F0.5
F0.5
F0.5
tRp241
sg11
g12
(F0
F0
F0
tRp242
sg14
S'Cube.001'
p243
s(dp244
g5
g6
(F1
F0
F0
F0
tRp245
sg8
g9
(F0.5
F0.5
F0.5
tRp246
sg11
g12
(F0
F0
F0
tRp247
sg14
S'Cube.001'
p248
s(dp249
g5
g6
(F1
F0
F0
F0
tRp250
sg8
g9
(F0.5
F0.5
F0.5
tRp251
sg11
g12
(F0
F0
F0
tRp252
sg14
S'Cube.001'
p253
s(dp254
g5
g6
(F1
F0
F0
F0
tRp255
sg8
g9
(F0.5
F0.5
F0.5
tRp256
sg11
g12
(F0
F0
F0
tRp257
sg14
S'Cube.001'
p258
s(dp259
g5
g6
(F1
F0
F0
F0
tRp260
sg8
g9
(F0.5
F0.5
F0.5
tRp261
sg11
g12
(F0
F0
F0
tRp262
sg14
S'Cube.001'
p263
s(dp264
g5
g6
(F1
F0
F0
F0
tRp265
sg8
g9
(F0.5
F0.5
F0.5
tRp266
sg11
g12
(F0
F0
F0
tRp267
sg14
S'Cube.001'
p268
s(dp269
g5
g6
(F1
F0
F0
F0
tRp270
sg8
g9
(F0.5
F0.5
F0.5
tRp271
sg11
g12
(F0
F0
F0
tRp272
sg14
S'Cube.001'
p273
st(I0
I1
I1
I1
I1
I1
I1
I7
I6
I5
I4
I3
I2
I13
I13
I12
I12
I11
I11
I10
I10
I9
I9
I8
I8
I25
I24
I23
I22
I21
I20
I19
I18
I17
I16
I15
I14
I37
I36
I35
I34
I33
I32
I31
I30
I29
I28
I27
I26
ttp274
.